target datalayout = "e-m:e-p270:32:32-p271:32:32-p272:64:64-i64:64-i128:128-f80:128-n8:16:32:64-S128"
target triple = "x86_64-unknown-linux-gnu"

; Function Attrs: mustprogress uwtable
define noundef i32 @_ZNK8proxygen16QPACKHeaderTable10toInternalEjj(ptr noundef nonnull align 8 dereferenceable(104) %this, i32 noundef %externalIndex, i32 noundef %base) #4 align 2 {
entry:
  %this.addr = alloca ptr, align 8
  %externalIndex.addr = alloca i32, align 4
  %base.addr = alloca i32, align 4
  %absIndex = alloca i32, align 4
  store ptr %this, ptr %this.addr, align 8
  store i32 %externalIndex, ptr %externalIndex.addr, align 4
  store i32 %base, ptr %base.addr, align 4
  %this1 = load ptr, ptr %this.addr, align 8
  %0 = load i32, ptr %base.addr, align 4
  %cmp = icmp ugt i32 %0, 0
  br i1 %cmp, label %if.then, label %if.end

if.then:                                          ; preds = %entry
  %1 = load i32, ptr %base.addr, align 4
  %2 = load i32, ptr %externalIndex.addr, align 4
  %sub = sub i32 %1, %2
  %add = add i32 %sub, 1
  store i32 %add, ptr %absIndex, align 4
  %3 = load i32, ptr %absIndex, align 4
  %call = call noundef i32 @_ZNK8proxygen16QPACKHeaderTable18absoluteToRelativeEj(ptr noundef nonnull align 8 dereferenceable(104) %this1, i32 noundef %3)
  store i32 %call, ptr %externalIndex.addr, align 4
  br label %if.end

if.end:                                           ; preds = %if.then, %entry
  %4 = load i32, ptr %externalIndex.addr, align 4
  %call2 = call noundef i32 @_ZNK8proxygen11HeaderTable10toInternalEj(ptr noundef nonnull align 8 dereferenceable(80) %this1, i32 noundef %4)
  ret i32 %call2
}