; Function Attrs: mustprogress uwtable
define noundef i32 @_ZNK8proxygen16QPACKHeaderTable10toInternalEjj(ptr noundef nonnull align 8 dereferenceable(104) %this, i32 noundef %externalIndex, i32 noundef %base) local_unnamed_addr #3 align 2 {
entry:
  %cmp.not = icmp eq i32 %base, 0
  br i1 %cmp.not, label %if.end, label %if.then

if.then:                                          ; preds = %entry
  %reass.sub = sub i32 %base, %externalIndex
  %add = add i32 %reass.sub, 1
  %call = tail call noundef i32 @_ZNK8proxygen16QPACKHeaderTable18absoluteToRelativeEj(ptr noundef nonnull align 8 dereferenceable(104) %this, i32 noundef %add)
  br label %if.end

if.end:                                           ; preds = %if.then, %entry
  %externalIndex.addr.0 = phi i32 [ %call, %if.then ], [ %externalIndex, %entry ]
  %call2 = tail call noundef i32 @_ZNK8proxygen11HeaderTable10toInternalEj(ptr noundef nonnull align 8 dereferenceable(80) %this, i32 noundef %externalIndex.addr.0)
  ret i32 %call2
}